target datalayout = "e-m:e-p270:32:32-p271:32:32-p272:64:64-i64:64-i128:128-f80:128-n8:16:32:64-S128"
target triple = "x86_64-pc-linux-gnu"

%struct.hostrange_t = type { ptr, i64, i64, i32, i8 }
%struct.hostname_t = type { ptr, ptr, i64, ptr }

; Function Attrs: nounwind uwtable
define internal i32 @_zero_padded(i64 noundef %0, i32 noundef %1) #0 {
  %3 = alloca i64, align 8
  %4 = alloca i32, align 4
  %5 = alloca i32, align 4
  store i64 %0, ptr %3, align 8
  store i32 %1, ptr %4, align 4
  call void @llvm.lifetime.start.p0(i64 4, ptr %5) #13
  store i32 1, ptr %5, align 4
  br label %6

6:                                                ; preds = %10, %2
  %7 = load i64, ptr %3, align 8
  %8 = udiv i64 %7, 10
  store i64 %8, ptr %3, align 8
  %9 = icmp ne i64 %8, 0
  br i1 %9, label %10, label %13

10:                                               ; preds = %6
  %11 = load i32, ptr %5, align 4
  %12 = add nsw i32 %11, 1
  store i32 %12, ptr %5, align 4
  br label %6, !llvm.loop !61

13:                                               ; preds = %6
  %14 = load i32, ptr %4, align 4
  %15 = load i32, ptr %5, align 4
  %16 = icmp sgt i32 %14, %15
  br i1 %16, label %17, label %21

17:                                               ; preds = %13
  %18 = load i32, ptr %4, align 4
  %19 = load i32, ptr %5, align 4
  %20 = sub nsw i32 %18, %19
  br label %22

21:                                               ; preds = %13
  br label %22

22:                                               ; preds = %21, %17
  %23 = phi i32 [ %20, %17 ], [ 0, %21 ]
  call void @llvm.lifetime.end.p0(i64 4, ptr %5) #13
  ret i32 %23
}

; Function Attrs: nounwind uwtable
define internal i32 @_width_equiv(i64 noundef %0, ptr noundef %1, i64 noundef %2, ptr noundef %3) #0 {
  %5 = alloca i32, align 4
  %6 = alloca i64, align 8
  %7 = alloca ptr, align 8
  %8 = alloca i64, align 8
  %9 = alloca ptr, align 8
  %10 = alloca i32, align 4
  %11 = alloca i32, align 4
  %12 = alloca i32, align 4
  %13 = alloca i32, align 4
  %14 = alloca i32, align 4
  store i64 %0, ptr %6, align 8
  store ptr %1, ptr %7, align 8
  store i64 %2, ptr %8, align 8
  store ptr %3, ptr %9, align 8
  call void @llvm.lifetime.start.p0(i64 4, ptr %10) #13
  call void @llvm.lifetime.start.p0(i64 4, ptr %11) #13
  call void @llvm.lifetime.start.p0(i64 4, ptr %12) #13
  call void @llvm.lifetime.start.p0(i64 4, ptr %13) #13
  %15 = load ptr, ptr %7, align 8
  %16 = load i32, ptr %15, align 4
  %17 = load ptr, ptr %9, align 8
  %18 = load i32, ptr %17, align 4
  %19 = icmp eq i32 %16, %18
  br i1 %19, label %20, label %21

20:                                               ; preds = %4
  store i32 1, ptr %5, align 4
  store i32 1, ptr %14, align 4
  br label %60

21:                                               ; preds = %4
  %22 = load i64, ptr %6, align 8
  %23 = load ptr, ptr %7, align 8
  %24 = load i32, ptr %23, align 4
  %25 = call i32 @_zero_padded(i64 noundef %22, i32 noundef %24)
  store i32 %25, ptr %10, align 4
  %26 = load i64, ptr %6, align 8
  %27 = load ptr, ptr %9, align 8
  %28 = load i32, ptr %27, align 4
  %29 = call i32 @_zero_padded(i64 noundef %26, i32 noundef %28)
  store i32 %29, ptr %11, align 4
  %30 = load i64, ptr %8, align 8
  %31 = load ptr, ptr %9, align 8
  %32 = load i32, ptr %31, align 4
  %33 = call i32 @_zero_padded(i64 noundef %30, i32 noundef %32)
  store i32 %33, ptr %12, align 4
  %34 = load i64, ptr %8, align 8
  %35 = load ptr, ptr %7, align 8
  %36 = load i32, ptr %35, align 4
  %37 = call i32 @_zero_padded(i64 noundef %34, i32 noundef %36)
  store i32 %37, ptr %13, align 4
  %38 = load i32, ptr %10, align 4
  %39 = load i32, ptr %11, align 4
  %40 = icmp ne i32 %38, %39
  br i1 %40, label %41, label %46

41:                                               ; preds = %21
  %42 = load i32, ptr %12, align 4
  %43 = load i32, ptr %13, align 4
  %44 = icmp ne i32 %42, %43
  br i1 %44, label %45, label %46

45:                                               ; preds = %41
  store i32 0, ptr %5, align 4
  store i32 1, ptr %14, align 4
  br label %60

46:                                               ; preds = %41, %21
  %47 = load i32, ptr %10, align 4
  %48 = load i32, ptr %11, align 4
  %49 = icmp ne i32 %47, %48
  br i1 %49, label %50, label %54

50:                                               ; preds = %46
  %51 = load ptr, ptr %7, align 8
  %52 = load i32, ptr %51, align 4
  %53 = load ptr, ptr %9, align 8
  store i32 %52, ptr %53, align 4
  br label %58

54:                                               ; preds = %46
  %55 = load ptr, ptr %9, align 8
  %56 = load i32, ptr %55, align 4
  %57 = load ptr, ptr %7, align 8
  store i32 %56, ptr %57, align 4
  br label %58

58:                                               ; preds = %54, %50
  br label %59

59:                                               ; preds = %58
  store i32 1, ptr %5, align 4
  store i32 1, ptr %14, align 4
  br label %60

60:                                               ; preds = %59, %45, %20
  call void @llvm.lifetime.end.p0(i64 4, ptr %13) #13
  call void @llvm.lifetime.end.p0(i64 4, ptr %12) #13
  call void @llvm.lifetime.end.p0(i64 4, ptr %11) #13
  call void @llvm.lifetime.end.p0(i64 4, ptr %10) #13
  %61 = load i32, ptr %5, align 4
  ret i32 %61
}

; Function Attrs: nounwind uwtable
define internal i32 @hostname_suffix_width(ptr noundef %0) #0 {
  %2 = alloca i32, align 4
  %3 = alloca ptr, align 8
  store ptr %0, ptr %3, align 8
  %4 = load ptr, ptr %3, align 8
  %5 = icmp ne ptr %4, null
  br i1 %5, label %7, label %6

6:                                                ; preds = %1
  store i32 -1, ptr %2, align 4
  br label %13

7:                                                ; preds = %1
  %8 = load ptr, ptr %3, align 8
  %9 = getelementptr inbounds nuw %struct.hostname_t, ptr %8, i32 0, i32 3
  %10 = load ptr, ptr %9, align 8
  %11 = call i64 @strlen(ptr noundef %10) #16
  %12 = trunc i64 %11 to i32
  store i32 %12, ptr %2, align 4
  br label %13

13:                                               ; preds = %7, %6
  %14 = load i32, ptr %2, align 4
  ret i32 %14
}

; Function Attrs: nounwind uwtable
define internal i32 @hostname_suffix_is_valid(ptr noundef %0) #0 {
  %2 = alloca i32, align 4
  %3 = alloca ptr, align 8
  store ptr %0, ptr %3, align 8
  %4 = load ptr, ptr %3, align 8
  %5 = icmp ne ptr %4, null
  br i1 %5, label %7, label %6

6:                                                ; preds = %1
  store i32 0, ptr %2, align 4
  br label %13

7:                                                ; preds = %1
  %8 = load ptr, ptr %3, align 8
  %9 = getelementptr inbounds nuw %struct.hostname_t, ptr %8, i32 0, i32 3
  %10 = load ptr, ptr %9, align 8
  %11 = icmp ne ptr %10, null
  %12 = zext i1 %11 to i32
  store i32 %12, ptr %2, align 4
  br label %13

13:                                               ; preds = %7, %6
  %14 = load i32, ptr %2, align 4
  ret i32 %14
}

; Function Attrs: nounwind uwtable
define internal i32 @hostrange_hn_within(ptr noundef %0, ptr noundef %1, i32 noundef %2) #0 {
  %4 = alloca i32, align 4
  %5 = alloca ptr, align 8
  %6 = alloca ptr, align 8
  %7 = alloca i32, align 4
  %8 = alloca i32, align 4
  %9 = alloca i32, align 4
  %10 = alloca i32, align 4
  %11 = alloca i32, align 4
  %12 = alloca i32, align 4
  %13 = alloca i32, align 4
  store ptr %0, ptr %5, align 8
  store ptr %1, ptr %6, align 8
  store i32 %2, ptr %7, align 4
  %14 = load ptr, ptr %5, align 8
  %15 = getelementptr inbounds nuw %struct.hostrange_t, ptr %14, i32 0, i32 4
  %16 = load i8, ptr %15, align 4, !range !12, !noundef !13
  %17 = trunc i8 %16 to i1
  br i1 %17, label %18, label %29

18:                                               ; preds = %3
  %19 = load ptr, ptr %6, align 8
  %20 = getelementptr inbounds nuw %struct.hostname_t, ptr %19, i32 0, i32 0
  %21 = load ptr, ptr %20, align 8
  %22 = load ptr, ptr %5, align 8
  %23 = getelementptr inbounds nuw %struct.hostrange_t, ptr %22, i32 0, i32 0
  %24 = load ptr, ptr %23, align 8
  %25 = call i32 @strcmp(ptr noundef %21, ptr noundef %24) #16
  %26 = icmp eq i32 %25, 0
  br i1 %26, label %27, label %28

27:                                               ; preds = %18
  store i32 1, ptr %4, align 4
  br label %162

28:                                               ; preds = %18
  store i32 0, ptr %4, align 4
  br label %162

29:                                               ; preds = %3
  %30 = load ptr, ptr %6, align 8
  %31 = call i32 @hostname_suffix_is_valid(ptr noundef %30)
  %32 = icmp ne i32 %31, 0
  br i1 %32, label %34, label %33

33:                                               ; preds = %29
  store i32 0, ptr %4, align 4
  br label %162

34:                                               ; preds = %29
  %35 = load ptr, ptr %5, align 8
  %36 = getelementptr inbounds nuw %struct.hostrange_t, ptr %35, i32 0, i32 0
  %37 = load ptr, ptr %36, align 8
  %38 = load ptr, ptr %6, align 8
  %39 = getelementptr inbounds nuw %struct.hostname_t, ptr %38, i32 0, i32 1
  %40 = load ptr, ptr %39, align 8
  %41 = call i32 @strcmp(ptr noundef %37, ptr noundef %40) #16
  %42 = icmp ne i32 %41, 0
  br i1 %42, label %43, label %130

43:                                               ; preds = %34
  call void @llvm.lifetime.start.p0(i64 4, ptr %8) #13
  call void @llvm.lifetime.start.p0(i64 4, ptr %9) #13
  call void @llvm.lifetime.start.p0(i64 4, ptr %10) #13
  %44 = load i32, ptr %7, align 4
  %45 = icmp ne i32 %44, 0
  br i1 %45, label %49, label %46

46:                                               ; preds = %43
  %47 = call zeroext i16 @slurmdb_setup_cluster_dims()
  %48 = zext i16 %47 to i32
  store i32 %48, ptr %7, align 4
  br label %49

49:                                               ; preds = %46, %43
  %50 = load i32, ptr %7, align 4
  %51 = icmp ne i32 %50, 1
  br i1 %51, label %52, label %53

52:                                               ; preds = %49
  store i32 0, ptr %4, align 4
  store i32 1, ptr %11, align 4
  br label %127

53:                                               ; preds = %49
  %54 = load ptr, ptr %5, align 8
  %55 = getelementptr inbounds nuw %struct.hostrange_t, ptr %54, i32 0, i32 0
  %56 = load ptr, ptr %55, align 8
  %57 = call i64 @strlen(ptr noundef %56) #16
  %58 = trunc i64 %57 to i32
  store i32 %58, ptr %8, align 4
  %59 = load ptr, ptr %6, align 8
  %60 = getelementptr inbounds nuw %struct.hostname_t, ptr %59, i32 0, i32 1
  %61 = load ptr, ptr %60, align 8
  %62 = call i64 @strlen(ptr noundef %61) #16
  %63 = trunc i64 %62 to i32
  store i32 %63, ptr %9, align 4
  %64 = load i32, ptr %8, align 4
  %65 = load i32, ptr %9, align 4
  %66 = icmp eq i32 %64, %65
  br i1 %66, label %67, label %68

67:                                               ; preds = %53
  store i32 0, ptr %4, align 4
  store i32 1, ptr %11, align 4
  br label %127

68:                                               ; preds = %53
  %69 = load i32, ptr %8, align 4
  %70 = load i32, ptr %9, align 4
  %71 = sub nsw i32 %69, %70
  store i32 %71, ptr %10, align 4
  %72 = load i32, ptr %10, align 4
  %73 = icmp sgt i32 %72, 0
  br i1 %73, label %74, label %90

74:                                               ; preds = %68
  %75 = load ptr, ptr %6, align 8
  %76 = getelementptr inbounds nuw %struct.hostname_t, ptr %75, i32 0, i32 3
  %77 = load ptr, ptr %76, align 8
  %78 = call i64 @strlen(ptr noundef %77) #16
  %79 = load i32, ptr %10, align 4
  %80 = sext i32 %79 to i64
  %81 = icmp uge i64 %78, %80
  br i1 %81, label %82, label %90

82:                                               ; preds = %74
  %83 = load ptr, ptr %6, align 8
  %84 = getelementptr inbounds nuw %struct.hostname_t, ptr %83, i32 0, i32 1
  %85 = load ptr, ptr %6, align 8
  %86 = getelementptr inbounds nuw %struct.hostname_t, ptr %85, i32 0, i32 3
  %87 = load ptr, ptr %86, align 8
  %88 = load i32, ptr %10, align 4
  %89 = sext i32 %88 to i64
  call void @_xstrncat(ptr noundef %84, ptr noundef %87, i64 noundef %89)
  br label %104

90:                                               ; preds = %74, %68
  %91 = load i32, ptr %10, align 4
  %92 = icmp slt i32 %91, 0
  br i1 %92, label %93, label %102

93:                                               ; preds = %90
  %94 = load ptr, ptr %6, align 8
  %95 = getelementptr inbounds nuw %struct.hostname_t, ptr %94, i32 0, i32 1
  %96 = load ptr, ptr %95, align 8
  %97 = load i32, ptr %9, align 4
  %98 = load i32, ptr %10, align 4
  %99 = add nsw i32 %97, %98
  %100 = sext i32 %99 to i64
  %101 = getelementptr inbounds i8, ptr %96, i64 %100
  store i8 0, ptr %101, align 1
  br label %103

102:                                              ; preds = %90
  store i32 0, ptr %4, align 4
  store i32 1, ptr %11, align 4
  br label %127

103:                                              ; preds = %93
  br label %104

104:                                              ; preds = %103, %82
  %105 = load i32, ptr %10, align 4
  %106 = load ptr, ptr %6, align 8
  %107 = getelementptr inbounds nuw %struct.hostname_t, ptr %106, i32 0, i32 3
  %108 = load ptr, ptr %107, align 8
  %109 = sext i32 %105 to i64
  %110 = getelementptr inbounds i8, ptr %108, i64 %109
  store ptr %110, ptr %107, align 8
  %111 = load ptr, ptr %6, align 8
  %112 = getelementptr inbounds nuw %struct.hostname_t, ptr %111, i32 0, i32 3
  %113 = load ptr, ptr %112, align 8
  %114 = call i64 @strtoul(ptr noundef %113, ptr noundef null, i32 noundef 10) #13
  %115 = load ptr, ptr %6, align 8
  %116 = getelementptr inbounds nuw %struct.hostname_t, ptr %115, i32 0, i32 2
  store i64 %114, ptr %116, align 8
  %117 = load ptr, ptr %5, align 8
  %118 = getelementptr inbounds nuw %struct.hostrange_t, ptr %117, i32 0, i32 0
  %119 = load ptr, ptr %118, align 8
  %120 = load ptr, ptr %6, align 8
  %121 = getelementptr inbounds nuw %struct.hostname_t, ptr %120, i32 0, i32 1
  %122 = load ptr, ptr %121, align 8
  %123 = call i32 @strcmp(ptr noundef %119, ptr noundef %122) #16
  %124 = icmp ne i32 %123, 0
  br i1 %124, label %125, label %126

125:                                              ; preds = %104
  store i32 0, ptr %4, align 4
  store i32 1, ptr %11, align 4
  br label %127

126:                                              ; preds = %104
  store i32 0, ptr %11, align 4
  br label %127

127:                                              ; preds = %126, %125, %102, %67, %52
  call void @llvm.lifetime.end.p0(i64 4, ptr %10) #13
  call void @llvm.lifetime.end.p0(i64 4, ptr %9) #13
  call void @llvm.lifetime.end.p0(i64 4, ptr %8) #13
  %128 = load i32, ptr %11, align 4
  switch i32 %128, label %164 [
    i32 0, label %129
    i32 1, label %162
  ]

129:                                              ; preds = %127
  br label %130

130:                                              ; preds = %129, %34
  %131 = load ptr, ptr %6, align 8
  %132 = getelementptr inbounds nuw %struct.hostname_t, ptr %131, i32 0, i32 2
  %133 = load i64, ptr %132, align 8
  %134 = load ptr, ptr %5, align 8
  %135 = getelementptr inbounds nuw %struct.hostrange_t, ptr %134, i32 0, i32 2
  %136 = load i64, ptr %135, align 8
  %137 = icmp ule i64 %133, %136
  br i1 %137, label %138, label %161

138:                                              ; preds = %130
  %139 = load ptr, ptr %6, align 8
  %140 = getelementptr inbounds nuw %struct.hostname_t, ptr %139, i32 0, i32 2
  %141 = load i64, ptr %140, align 8
  %142 = load ptr, ptr %5, align 8
  %143 = getelementptr inbounds nuw %struct.hostrange_t, ptr %142, i32 0, i32 1
  %144 = load i64, ptr %143, align 8
  %145 = icmp uge i64 %141, %144
  br i1 %145, label %146, label %161

146:                                              ; preds = %138
  call void @llvm.lifetime.start.p0(i64 4, ptr %12) #13
  %147 = load ptr, ptr %6, align 8
  %148 = call i32 @hostname_suffix_width(ptr noundef %147)
  store i32 %148, ptr %12, align 4
  call void @llvm.lifetime.start.p0(i64 4, ptr %13) #13
  %149 = load ptr, ptr %6, align 8
  %150 = getelementptr inbounds nuw %struct.hostname_t, ptr %149, i32 0, i32 2
  %151 = load i64, ptr %150, align 8
  %152 = trunc i64 %151 to i32
  store i32 %152, ptr %13, align 4
  %153 = load ptr, ptr %5, align 8
  %154 = getelementptr inbounds nuw %struct.hostrange_t, ptr %153, i32 0, i32 1
  %155 = load i64, ptr %154, align 8
  %156 = load ptr, ptr %5, align 8
  %157 = getelementptr inbounds nuw %struct.hostrange_t, ptr %156, i32 0, i32 3
  %158 = load i32, ptr %13, align 4
  %159 = sext i32 %158 to i64
  %160 = call i32 @_width_equiv(i64 noundef %155, ptr noundef %157, i64 noundef %159, ptr noundef %12)
  store i32 %160, ptr %4, align 4
  store i32 1, ptr %11, align 4
  call void @llvm.lifetime.end.p0(i64 4, ptr %13) #13
  call void @llvm.lifetime.end.p0(i64 4, ptr %12) #13
  br label %162

161:                                              ; preds = %138, %130
  store i32 0, ptr %4, align 4
  br label %162

162:                                              ; preds = %161, %146, %127, %33, %28, %27
  %163 = load i32, ptr %4, align 4
  ret i32 %163

164:                                              ; preds = %127
  unreachable
}