; Function Attrs: nounwind uwtable
define internal fastcc range(i32 0, 2) i32 @hostrange_hn_within(ptr noundef captures(none) %0, ptr noundef %1, i32 noundef %2) unnamed_addr #0 {
  %4 = getelementptr inbounds nuw i8, ptr %0, i64 28
  %5 = load i8, ptr %4, align 4, !range !14, !noundef !15
  %6 = trunc nuw i8 %5 to i1
  br i1 %6, label %7, label %12

7:                                                ; preds = %3
  %8 = load ptr, ptr %1, align 8
  %9 = load ptr, ptr %0, align 8
  %10 = tail call i32 @strcmp(ptr noundef nonnull dereferenceable(1) %8, ptr noundef nonnull dereferenceable(1) %9) #23
  %11 = icmp eq i32 %10, 0
  br label %_width_equiv.exit

12:                                               ; preds = %3
  %.not.i = icmp eq ptr %1, null
  br i1 %.not.i, label %_width_equiv.exit, label %hostname_suffix_is_valid.exit

hostname_suffix_is_valid.exit:                    ; preds = %12
  %13 = getelementptr inbounds nuw i8, ptr %1, i64 24
  %14 = load ptr, ptr %13, align 8
  %.not66 = icmp eq ptr %14, null
  br i1 %.not66, label %_width_equiv.exit, label %15

15:                                               ; preds = %hostname_suffix_is_valid.exit
  %16 = load ptr, ptr %0, align 8
  %17 = getelementptr inbounds nuw i8, ptr %1, i64 8
  %18 = load ptr, ptr %17, align 8
  %19 = tail call i32 @strcmp(ptr noundef nonnull dereferenceable(1) %16, ptr noundef nonnull dereferenceable(1) %18) #23
  %.not48 = icmp eq i32 %19, 0
  br i1 %.not48, label %._crit_edge, label %20

._crit_edge:                                      ; preds = %15
  %.phi.trans.insert = getelementptr inbounds nuw i8, ptr %1, i64 16
  %.pre = load i64, ptr %.phi.trans.insert, align 8
  br label %55

20:                                               ; preds = %15
  %.not49 = icmp eq i32 %2, 0
  br i1 %.not49, label %21, label %24

21:                                               ; preds = %20
  %22 = tail call zeroext i16 @slurmdb_setup_cluster_dims() #22
  %23 = zext i16 %22 to i32
  br label %24

24:                                               ; preds = %21, %20
  %.041 = phi i32 [ %2, %20 ], [ %23, %21 ]
  %.not50 = icmp eq i32 %.041, 1
  br i1 %.not50, label %25, label %_width_equiv.exit

25:                                               ; preds = %24
  %26 = load ptr, ptr %0, align 8
  %27 = tail call i64 @strlen(ptr noundef nonnull dereferenceable(1) %26) #23
  %28 = trunc i64 %27 to i32
  %29 = load ptr, ptr %17, align 8
  %30 = tail call i64 @strlen(ptr noundef nonnull dereferenceable(1) %29) #23
  %31 = trunc i64 %30 to i32
  %32 = icmp eq i32 %28, %31
  br i1 %32, label %_width_equiv.exit, label %33

33:                                               ; preds = %25
  %34 = sub nsw i32 %28, %31
  %35 = icmp sgt i32 %34, 0
  br i1 %35, label %36, label %41

36:                                               ; preds = %33
  %37 = load ptr, ptr %13, align 8
  %38 = tail call i64 @strlen(ptr noundef nonnull dereferenceable(1) %37) #23
  %39 = zext nneg i32 %34 to i64
  %.not51 = icmp ult i64 %38, %39
  br i1 %.not51, label %_width_equiv.exit, label %40

40:                                               ; preds = %36
  tail call void @_xstrncat(ptr noundef nonnull %17, ptr noundef nonnull %37, i64 noundef %39) #22
  br label %46

41:                                               ; preds = %33
  %42 = icmp slt i32 %34, 0
  br i1 %42, label %43, label %_width_equiv.exit

43:                                               ; preds = %41
  %sext = shl i64 %27, 32
  %44 = ashr exact i64 %sext, 32
  %45 = getelementptr inbounds i8, ptr %29, i64 %44
  store i8 0, ptr %45, align 1
  br label %46

46:                                               ; preds = %43, %40
  %47 = load ptr, ptr %13, align 8
  %48 = sext i32 %34 to i64
  %49 = getelementptr inbounds i8, ptr %47, i64 %48
  store ptr %49, ptr %13, align 8
  %50 = tail call i64 @strtoul(ptr noundef nonnull captures(none) %49, ptr noundef null, i32 noundef 10) #22
  %51 = getelementptr inbounds nuw i8, ptr %1, i64 16
  store i64 %50, ptr %51, align 8
  %52 = load ptr, ptr %0, align 8
  %53 = load ptr, ptr %17, align 8
  %54 = tail call i32 @strcmp(ptr noundef nonnull dereferenceable(1) %52, ptr noundef nonnull dereferenceable(1) %53) #23
  %.not52 = icmp eq i32 %54, 0
  br i1 %.not52, label %55, label %_width_equiv.exit

55:                                               ; preds = %._crit_edge, %46
  %56 = phi i64 [ %.pre, %._crit_edge ], [ %50, %46 ]
  %57 = getelementptr inbounds nuw i8, ptr %0, i64 16
  %58 = load i64, ptr %57, align 8
  %.not53 = icmp ugt i64 %56, %58
  br i1 %.not53, label %_width_equiv.exit, label %59

59:                                               ; preds = %55
  %60 = getelementptr inbounds nuw i8, ptr %0, i64 8
  %61 = load i64, ptr %60, align 8
  %.not54 = icmp ult i64 %56, %61
  br i1 %.not54, label %_width_equiv.exit, label %hostname_suffix_width.exit

hostname_suffix_width.exit:                       ; preds = %59
  %62 = load ptr, ptr %13, align 8
  %63 = tail call i64 @strlen(ptr noundef nonnull dereferenceable(1) %62) #23
  %64 = trunc i64 %63 to i32
  %65 = getelementptr inbounds nuw i8, ptr %0, i64 24
  %sext55 = shl i64 %56, 32
  %66 = ashr exact i64 %sext55, 32
  %67 = load i32, ptr %65, align 4
  %68 = icmp eq i32 %67, %64
  br i1 %68, label %_width_equiv.exit, label %69

69:                                               ; preds = %hostname_suffix_width.exit
  %.not8.i.i = icmp ult i64 %61, 10
  br i1 %.not8.i.i, label %_zero_padded.exit.thread.i, label %.lr.ph.i.i

_zero_padded.exit.thread.i:                       ; preds = %69
  %70 = tail call i32 @llvm.smax.i32(i32 %67, i32 1)
  %71 = add nsw i32 %70, -1
  br label %_zero_padded.exit28.i

.lr.ph.i.i:                                       ; preds = %69, %.lr.ph.i.i
  %.010.i.i = phi i32 [ %73, %.lr.ph.i.i ], [ 1, %69 ]
  %.069.i.i = phi i64 [ %72, %.lr.ph.i.i ], [ %61, %69 ]
  %72 = udiv i64 %.069.i.i, 10
  %73 = add nuw nsw i32 %.010.i.i, 1
  %.not.i.i = icmp ult i64 %.069.i.i, 100
  br i1 %.not.i.i, label %.lr.ph.i23.i, label %.lr.ph.i.i, !llvm.loop !38

.lr.ph.i23.i:                                     ; preds = %.lr.ph.i.i, %.lr.ph.i23.i
  %.010.i24.i = phi i32 [ %75, %.lr.ph.i23.i ], [ 1, %.lr.ph.i.i ]
  %.069.i25.i = phi i64 [ %74, %.lr.ph.i23.i ], [ %61, %.lr.ph.i.i ]
  %74 = udiv i64 %.069.i25.i, 10
  %75 = add nuw nsw i32 %.010.i24.i, 1
  %.not.i26.i = icmp ult i64 %.069.i25.i, 100
  br i1 %.not.i26.i, label %_zero_padded.exit28.loopexit.i, label %.lr.ph.i23.i, !llvm.loop !38

_zero_padded.exit28.loopexit.i:                   ; preds = %.lr.ph.i23.i
  %76 = sub nsw i32 %67, %73
  %77 = icmp sgt i32 %67, %73
  %78 = select i1 %77, i32 %76, i32 0
  br label %_zero_padded.exit28.i

_zero_padded.exit28.i:                            ; preds = %_zero_padded.exit28.loopexit.i, %_zero_padded.exit.thread.i
  %79 = phi i32 [ %71, %_zero_padded.exit.thread.i ], [ %78, %_zero_padded.exit28.loopexit.i ]
  %.0.lcssa.i27.i = phi i32 [ 1, %_zero_padded.exit.thread.i ], [ %75, %_zero_padded.exit28.loopexit.i ]
  %80 = icmp slt i32 %.0.lcssa.i27.i, %64
  %81 = sub nsw i32 %64, %.0.lcssa.i27.i
  %82 = select i1 %80, i32 %81, i32 0
  %.not8.i29.i = icmp ult i64 %66, 10
  br i1 %.not8.i29.i, label %_zero_padded.exit35.thread.i, label %.lr.ph.i30.i

_zero_padded.exit35.thread.i:                     ; preds = %_zero_padded.exit28.i
  %83 = tail call i32 @llvm.smax.i32(i32 %64, i32 1)
  %84 = add nsw i32 %83, -1
  br label %_zero_padded.exit42.i

.lr.ph.i30.i:                                     ; preds = %_zero_padded.exit28.i, %.lr.ph.i30.i
  %.010.i31.i = phi i32 [ %86, %.lr.ph.i30.i ], [ 1, %_zero_padded.exit28.i ]
  %.069.i32.i = phi i64 [ %85, %.lr.ph.i30.i ], [ %66, %_zero_padded.exit28.i ]
  %85 = udiv i64 %.069.i32.i, 10
  %86 = add nuw nsw i32 %.010.i31.i, 1
  %.not.i33.i = icmp ult i64 %.069.i32.i, 100
  br i1 %.not.i33.i, label %.lr.ph.i37.i, label %.lr.ph.i30.i, !llvm.loop !38

.lr.ph.i37.i:                                     ; preds = %.lr.ph.i30.i, %.lr.ph.i37.i
  %.010.i38.i = phi i32 [ %88, %.lr.ph.i37.i ], [ 1, %.lr.ph.i30.i ]
  %.069.i39.i = phi i64 [ %87, %.lr.ph.i37.i ], [ %66, %.lr.ph.i30.i ]
  %87 = udiv i64 %.069.i39.i, 10
  %88 = add nuw nsw i32 %.010.i38.i, 1
  %.not.i40.i = icmp ult i64 %.069.i39.i, 100
  br i1 %.not.i40.i, label %_zero_padded.exit42.loopexit.i, label %.lr.ph.i37.i, !llvm.loop !38

_zero_padded.exit42.loopexit.i:                   ; preds = %.lr.ph.i37.i
  %89 = sub nsw i32 %64, %86
  %90 = icmp slt i32 %86, %64
  %91 = select i1 %90, i32 %89, i32 0
  br label %_zero_padded.exit42.i

_zero_padded.exit42.i:                            ; preds = %_zero_padded.exit42.loopexit.i, %_zero_padded.exit35.thread.i
  %92 = phi i32 [ %84, %_zero_padded.exit35.thread.i ], [ %91, %_zero_padded.exit42.loopexit.i ]
  %.0.lcssa.i41.i = phi i32 [ 1, %_zero_padded.exit35.thread.i ], [ %88, %_zero_padded.exit42.loopexit.i ]
  %93 = icmp sgt i32 %67, %.0.lcssa.i41.i
  %94 = sub nsw i32 %67, %.0.lcssa.i41.i
  %95 = select i1 %93, i32 %94, i32 0
  %.not.i59 = icmp eq i32 %79, %82
  %.not21.i = icmp eq i32 %92, %95
  br i1 %.not.i59, label %96, label %_width_equiv.exit

96:                                               ; preds = %_zero_padded.exit42.i
  store i32 %64, ptr %65, align 4
  br label %_width_equiv.exit

_width_equiv.exit:                                ; preds = %_zero_padded.exit42.i, %36, %46, %41, %25, %24, %12, %96, %hostname_suffix_width.exit, %55, %59, %hostname_suffix_is_valid.exit, %7
  %.0.shrunk = phi i1 [ %11, %7 ], [ false, %hostname_suffix_is_valid.exit ], [ false, %59 ], [ false, %55 ], [ true, %hostname_suffix_width.exit ], [ %.not21.i, %_zero_padded.exit42.i ], [ true, %96 ], [ false, %12 ], [ false, %24 ], [ false, %25 ], [ false, %41 ], [ false, %46 ], [ false, %36 ]
  %.0 = zext i1 %.0.shrunk to i32
  ret i32 %.0
}